; Function Attrs: nounwind uwtable
define noalias ptr @ff_rm_alloc_rmstream() local_unnamed_addr #0 {
  %1 = tail call noalias ptr @av_mallocz(i64 noundef 232) #12
  %.not = icmp eq ptr %1, null
  br i1 %.not, label %4, label %2

2:                                                ; preds = %0
  %3 = getelementptr inbounds nuw i8, ptr %1, i64 112
  store i32 -1, ptr %3, align 8, !tbaa !4
  br label %4

4:                                                ; preds = %0, %2
  ret ptr %1
}